; Function Attrs: nounwind uwtable
define internal noundef zeroext i1 @HIDAPI_DriverXbox360W_OpenJoystick(ptr noundef readonly captures(none) %0, ptr noundef %1) #0 {
  %3 = alloca [12 x i8], align 1
  %4 = alloca [12 x i8], align 1
  %5 = getelementptr inbounds nuw i8, ptr %0, i64 112
  %6 = load ptr, ptr %5, align 8
  tail call void @SDL_AssertJoysticksLocked() #8
  %7 = getelementptr inbounds nuw i8, ptr %6, i64 17
  tail call void @llvm.memset.p0.i64(ptr noundef nonnull align 1 dereferenceable(64) %7, i8 0, i64 64, i1 false)
  %8 = tail call i32 @SDL_GetJoystickPlayerIndex_REAL(ptr noundef %1) #8
  %9 = getelementptr inbounds nuw i8, ptr %6, i64 12
  store i32 %8, ptr %9, align 4
  %10 = tail call zeroext i1 @SDL_GetHintBoolean_REAL(ptr noundef nonnull @.str.6, i1 noundef zeroext true) #8
  %11 = getelementptr inbounds nuw i8, ptr %6, i64 16
  %12 = zext i1 %10 to i8
  store i8 %12, ptr %11, align 8
  br i1 %10, label %13, label %25

13:                                               ; preds = %2
  %14 = load i32, ptr %9, align 4
  %15 = icmp sgt i32 %14, -1
  br i1 %15, label %16, label %25

16:                                               ; preds = %13
  %17 = load ptr, ptr %6, align 8
  %18 = getelementptr inbounds nuw i8, ptr %17, i64 128
  %19 = load ptr, ptr %18, align 8
  %20 = trunc i32 %14 to i8
  %21 = and i8 %20, 3
  call void @llvm.lifetime.start.p0(i64 12, ptr nonnull %4) #8
  call void @llvm.memcpy.p0.p0.i64(ptr noundef nonnull align 1 dereferenceable(12) %4, ptr noundef nonnull align 1 dereferenceable(12) @__const.SetSlotLED.led_packet, i64 12, i1 false)
  %22 = add nuw nsw i8 %21, 70
  %23 = getelementptr inbounds nuw i8, ptr %4, i64 3
  store i8 %22, ptr %23, align 1
  %24 = call i32 @SDL_hid_write_REAL(ptr noundef %19, ptr noundef nonnull %4, i64 noundef 12) #8
  call void @llvm.lifetime.end.p0(i64 12, ptr nonnull %4) #8
  br label %UpdateSlotLED.exit

25:                                               ; preds = %13, %2
  %26 = load ptr, ptr %6, align 8
  %27 = getelementptr inbounds nuw i8, ptr %26, i64 128
  %28 = load ptr, ptr %27, align 8
  call void @llvm.lifetime.start.p0(i64 12, ptr nonnull %3) #8
  call void @llvm.memcpy.p0.p0.i64(ptr noundef nonnull align 1 dereferenceable(12) %3, ptr noundef nonnull align 1 dereferenceable(12) @__const.SetSlotLED.led_packet, i64 12, i1 false)
  %29 = getelementptr inbounds nuw i8, ptr %3, i64 3
  store i8 64, ptr %29, align 1
  %30 = call i32 @SDL_hid_write_REAL(ptr noundef %28, ptr noundef nonnull %3, i64 noundef 12) #8
  call void @llvm.lifetime.end.p0(i64 12, ptr nonnull %3) #8
  br label %UpdateSlotLED.exit

UpdateSlotLED.exit:                               ; preds = %16, %25
  %31 = call zeroext i1 @SDL_AddHintCallback_REAL(ptr noundef nonnull @.str.6, ptr noundef nonnull @SDL_PlayerLEDHintChanged, ptr noundef nonnull %6) #8
  %32 = getelementptr inbounds nuw i8, ptr %1, i64 112
  store i32 11, ptr %32, align 8
  %33 = getelementptr inbounds nuw i8, ptr %1, i64 68
  store i32 6, ptr %33, align 4
  %34 = getelementptr inbounds nuw i8, ptr %1, i64 96
  store i32 1, ptr %34, align 8
  %35 = getelementptr inbounds nuw i8, ptr %1, i64 228
  store i32 2, ptr %35, align 4
  ret i1 true
}